target datalayout = "e-m:e-p270:32:32-p271:32:32-p272:64:64-i64:64-i128:128-f80:128-n8:16:32:64-S128"
target triple = "x86_64-pc-linux-gnu"

%"class.sat::literal" = type { i32 }
%"struct.sat::local_search::var_info" = type { i8, i32, i8, %"class.sat::literal", i8, i8, i32, i32, i32, %class.svector.1, [2 x %class.svector.11], [2 x %class.svector.4], i32, %class.ema, double }
%class.svector.1 = type { %class.vector.2 }
%class.vector.2 = type { ptr }
%class.svector.11 = type { %class.vector.12 }
%class.vector.12 = type { ptr }
%class.svector.4 = type { %class.vector.5 }
%class.vector.5 = type { ptr }
%class.ema = type { double, double, double, i32, i32 }
%"class.sat::local_search" = type { %"class.sat::i_local_search", %"struct.sat::local_search::stats", %"class.sat::local_search_config", %class.vector, %class.svector, %class.svector.1, %class.vector.3, %class.svector.4, %class.svector.4, i32, i8, i8, %class.svector.1, %class.svector.1, %class.svector.1, i8, i32, double, double, i32, i32, double, double, %class.reslimit, %class.random_gen, ptr, %class.svector.9 }
%"class.sat::i_local_search" = type { ptr }
%"struct.sat::local_search::stats" = type { i32, i32 }
%"class.sat::local_search_config" = type { i32, i32, i32, i8, i8, double }
%class.vector = type { ptr }
%class.svector = type { %class.vector.0 }
%class.vector.0 = type { ptr }
%class.vector.3 = type { ptr }
%class.reslimit = type { %"struct.std::atomic", i8, i64, i64, %class.svector.6, %class.ptr_vector }
%"struct.std::atomic" = type { %"struct.std::__atomic_base" }
%"struct.std::__atomic_base" = type { i32 }
%class.svector.6 = type { %class.vector.7 }
%class.vector.7 = type { ptr }
%class.ptr_vector = type { %class.vector.8 }
%class.vector.8 = type { ptr }
%class.random_gen = type { i32 }
%class.svector.9 = type { %class.vector.10 }
%class.vector.10 = type { ptr }
%"class.std::ios_base" = type { ptr, i64, i64, i32, i32, i32, ptr, %"struct.std::ios_base::_Words", [8 x %"struct.std::ios_base::_Words"], i32, ptr, %"class.std::locale" }
%"struct.std::ios_base::_Words" = type { ptr, i64 }
%"class.std::locale" = type { ptr }

@.str.7 = private unnamed_addr constant [2 x i8] c" \00", align 1
@.str.8 = private unnamed_addr constant [2 x i8] c"\0A\00", align 1
@.str.41 = private unnamed_addr constant [8 x i8] c"flips: \00", align 1
@.str.42 = private unnamed_addr constant [19 x i8] c"local-search-flips\00", align 1
@.str.43 = private unnamed_addr constant [22 x i8] c"local-search-restarts\00", align 1

; Function Attrs: inlinehint mustprogress nounwind uwtable
define linkonce_odr noundef i32 @_ZStorSt12_Ios_IostateS_(i32 noundef %0, i32 noundef %1) #7 comdat {
  %3 = alloca i32, align 4
  %4 = alloca i32, align 4
  store i32 %0, ptr %3, align 4, !tbaa !435
  store i32 %1, ptr %4, align 4, !tbaa !435
  %5 = load i32, ptr %3, align 4, !tbaa !435
  %6 = load i32, ptr %4, align 4, !tbaa !435
  %7 = or i32 %5, %6
  ret i32 %7
}

; Function Attrs: mustprogress nounwind uwtable
define available_externally noundef i32 @_ZNKSt9basic_iosIcSt11char_traitsIcEE7rdstateEv(ptr noundef nonnull align 8 dereferenceable(264) %0) #6 align 2 {
  %2 = alloca ptr, align 8
  store ptr %0, ptr %2, align 8, !tbaa !433
  %3 = load ptr, ptr %2, align 8
  %4 = getelementptr inbounds nuw %"class.std::ios_base", ptr %3, i32 0, i32 5
  %5 = load i32, ptr %4, align 8, !tbaa !437
  ret i32 %5
}

; Function Attrs: mustprogress nounwind uwtable
define linkonce_odr hidden noundef i64 @_ZNSt11char_traitsIcE6lengthEPKc(ptr noundef %0) #6 comdat align 2 {
  %2 = alloca ptr, align 8
  store ptr %0, ptr %2, align 8, !tbaa !129
  %3 = load ptr, ptr %2, align 8, !tbaa !129
  %4 = call i64 @strlen(ptr noundef %3) #3
  ret i64 %4
}

; Function Attrs: mustprogress uwtable
define available_externally void @_ZNSt9basic_iosIcSt11char_traitsIcEE8setstateESt12_Ios_Iostate(ptr noundef nonnull align 8 dereferenceable(264) %0, i32 noundef %1) #4 align 2 {
  %3 = alloca ptr, align 8
  %4 = alloca i32, align 4
  store ptr %0, ptr %3, align 8, !tbaa !433
  store i32 %1, ptr %4, align 4, !tbaa !435
  %5 = load ptr, ptr %3, align 8
  %6 = call noundef i32 @_ZNKSt9basic_iosIcSt11char_traitsIcEE7rdstateEv(ptr noundef nonnull align 8 dereferenceable(264) %5)
  %7 = load i32, ptr %4, align 4, !tbaa !435
  %8 = call noundef i32 @_ZStorSt12_Ios_IostateS_(i32 noundef %6, i32 noundef %7)
  call void @_ZNSt9basic_iosIcSt11char_traitsIcEE5clearESt12_Ios_Iostate(ptr noundef nonnull align 8 dereferenceable(264) %5, i32 noundef %8)
  ret void
}

; Function Attrs: mustprogress nounwind uwtable
define linkonce_odr hidden noundef i32 @_ZNK6vectorIN3sat12local_search8var_infoELb1EjE4sizeEv(ptr noundef nonnull align 8 dereferenceable(8) %0) #6 comdat align 2 {
  %2 = alloca i32, align 4
  %3 = alloca ptr, align 8
  store ptr %0, ptr %3, align 8, !tbaa !51
  %4 = load ptr, ptr %3, align 8
  %5 = getelementptr inbounds nuw %class.vector, ptr %4, i32 0, i32 0
  %6 = load ptr, ptr %5, align 8, !tbaa !73
  %7 = icmp eq ptr %6, null
  br i1 %7, label %8, label %9

8:                                                ; preds = %1
  store i32 0, ptr %2, align 4
  br label %14

9:                                                ; preds = %1
  %10 = getelementptr inbounds nuw %class.vector, ptr %4, i32 0, i32 0
  %11 = load ptr, ptr %10, align 8, !tbaa !73
  %12 = getelementptr inbounds i32, ptr %11, i64 -1
  %13 = load i32, ptr %12, align 4, !tbaa !10
  store i32 %13, ptr %2, align 4
  br label %14

14:                                               ; preds = %9, %8
  %15 = load i32, ptr %2, align 4
  ret i32 %15
}

; Function Attrs: mustprogress uwtable
define available_externally noundef nonnull align 8 dereferenceable(8) ptr @_ZNSolsEd(ptr noundef nonnull align 8 dereferenceable(8) %0, double noundef %1) #4 align 2 {
  %3 = alloca ptr, align 8
  %4 = alloca double, align 8
  store ptr %0, ptr %3, align 8, !tbaa !127
  store double %1, ptr %4, align 8, !tbaa !232
  %5 = load ptr, ptr %3, align 8
  %6 = load double, ptr %4, align 8, !tbaa !232
  %7 = call noundef nonnull align 8 dereferenceable(8) ptr @_ZNSo9_M_insertIdEERSoT_(ptr noundef nonnull align 8 dereferenceable(8) %5, double noundef %6)
  ret ptr %7
}

; Function Attrs: mustprogress nounwind uwtable
define linkonce_odr hidden noundef double @_ZNK3emacvdEv(ptr noundef nonnull align 8 dereferenceable(32) %0) #6 comdat align 2 {
  %2 = alloca ptr, align 8
  store ptr %0, ptr %2, align 8, !tbaa !244
  %3 = load ptr, ptr %2, align 8
  %4 = getelementptr inbounds nuw %class.ema, ptr %3, i32 0, i32 2
  %5 = load double, ptr %4, align 8, !tbaa !246
  ret double %5
}

; Function Attrs: mustprogress uwtable
define available_externally noundef nonnull align 8 dereferenceable(8) ptr @_ZNSolsEj(ptr noundef nonnull align 8 dereferenceable(8) %0, i32 noundef %1) #4 align 2 {
  %3 = alloca ptr, align 8
  %4 = alloca i32, align 4
  store ptr %0, ptr %3, align 8, !tbaa !127
  store i32 %1, ptr %4, align 4, !tbaa !10
  %5 = load ptr, ptr %3, align 8
  %6 = load i32, ptr %4, align 4, !tbaa !10
  %7 = zext i32 %6 to i64
  %8 = call noundef nonnull align 8 dereferenceable(8) ptr @_ZNSo9_M_insertImEERSoT_(ptr noundef nonnull align 8 dereferenceable(8) %5, i64 noundef %7)
  ret ptr %8
}

; Function Attrs: inlinehint mustprogress uwtable
define available_externally noundef nonnull align 8 dereferenceable(8) ptr @_ZStlsISt11char_traitsIcEERSt13basic_ostreamIcT_ES5_PKc(ptr noundef nonnull align 8 dereferenceable(8) %0, ptr noundef %1) #8 {
  %3 = alloca ptr, align 8
  %4 = alloca ptr, align 8
  store ptr %0, ptr %3, align 8, !tbaa !127
  store ptr %1, ptr %4, align 8, !tbaa !129
  %5 = load ptr, ptr %4, align 8, !tbaa !129
  %6 = icmp ne ptr %5, null
  br i1 %6, label %13, label %7

7:                                                ; preds = %2
  %8 = load ptr, ptr %3, align 8, !tbaa !127
  %9 = load ptr, ptr %8, align 8, !tbaa !131
  %10 = getelementptr i8, ptr %9, i64 -24
  %11 = load i64, ptr %10, align 8
  %12 = getelementptr inbounds i8, ptr %8, i64 %11
  call void @_ZNSt9basic_iosIcSt11char_traitsIcEE8setstateESt12_Ios_Iostate(ptr noundef nonnull align 8 dereferenceable(264) %12, i32 noundef 1)
  br label %19

13:                                               ; preds = %2
  %14 = load ptr, ptr %3, align 8, !tbaa !127
  %15 = load ptr, ptr %4, align 8, !tbaa !129
  %16 = load ptr, ptr %4, align 8, !tbaa !129
  %17 = call noundef i64 @_ZNSt11char_traitsIcE6lengthEPKc(ptr noundef %16)
  %18 = call noundef nonnull align 8 dereferenceable(8) ptr @_ZSt16__ostream_insertIcSt11char_traitsIcEERSt13basic_ostreamIT_T0_ES6_PKS3_l(ptr noundef nonnull align 8 dereferenceable(8) %14, ptr noundef %15, i64 noundef %17)
  br label %19

19:                                               ; preds = %13, %7
  %20 = load ptr, ptr %3, align 8, !tbaa !127
  ret ptr %20
}

; Function Attrs: mustprogress nounwind uwtable
define linkonce_odr hidden noundef ptr @_ZNK6vectorIN3sat12local_search8var_infoELb1EjE3endEv(ptr noundef nonnull align 8 dereferenceable(8) %0) #6 comdat align 2 {
  %2 = alloca ptr, align 8
  store ptr %0, ptr %2, align 8, !tbaa !51
  %3 = load ptr, ptr %2, align 8
  %4 = getelementptr inbounds nuw %class.vector, ptr %3, i32 0, i32 0
  %5 = load ptr, ptr %4, align 8, !tbaa !73
  %6 = call noundef i32 @_ZNK6vectorIN3sat12local_search8var_infoELb1EjE4sizeEv(ptr noundef nonnull align 8 dereferenceable(8) %3)
  %7 = zext i32 %6 to i64
  %8 = getelementptr inbounds nuw %"struct.sat::local_search::var_info", ptr %5, i64 %7
  ret ptr %8
}

; Function Attrs: mustprogress nounwind uwtable
define linkonce_odr hidden noundef ptr @_ZNK6vectorIN3sat12local_search8var_infoELb1EjE5beginEv(ptr noundef nonnull align 8 dereferenceable(8) %0) #6 comdat align 2 {
  %2 = alloca ptr, align 8
  store ptr %0, ptr %2, align 8, !tbaa !51
  %3 = load ptr, ptr %2, align 8
  %4 = getelementptr inbounds nuw %class.vector, ptr %3, i32 0, i32 0
  %5 = load ptr, ptr %4, align 8, !tbaa !73
  ret ptr %5
}

; Function Attrs: mustprogress nounwind uwtable
define linkonce_odr hidden noundef zeroext i1 @_ZNK3sat19local_search_config9dbg_flipsEv(ptr noundef nonnull align 8 dereferenceable(24) %0) #6 comdat align 2 {
  %2 = alloca ptr, align 8
  store ptr %0, ptr %2, align 8, !tbaa !81
  %3 = load ptr, ptr %2, align 8
  %4 = getelementptr inbounds nuw %"class.sat::local_search_config", ptr %3, i32 0, i32 4
  %5 = load i8, ptr %4, align 1, !tbaa !192, !range !49, !noundef !50
  %6 = trunc i8 %5 to i1
  ret i1 %6
}

; Function Attrs: mustprogress uwtable
define hidden void @_ZNK3sat12local_search18collect_statisticsER10statistics(ptr noundef nonnull align 8 dereferenceable(232) %0, ptr noundef nonnull align 8 dereferenceable(16) %1) unnamed_addr #4 align 2 {
  %3 = alloca ptr, align 8
  %4 = alloca ptr, align 8
  %5 = alloca i32, align 4
  %6 = alloca ptr, align 8
  %7 = alloca ptr, align 8
  %8 = alloca ptr, align 8
  %9 = alloca ptr, align 8
  store ptr %0, ptr %3, align 8, !tbaa !3
  store ptr %1, ptr %4, align 8, !tbaa !272
  %10 = load ptr, ptr %3, align 8
  %11 = getelementptr inbounds nuw %"class.sat::local_search", ptr %10, i32 0, i32 2
  %12 = call noundef zeroext i1 @_ZNK3sat19local_search_config9dbg_flipsEv(ptr noundef nonnull align 8 dereferenceable(24) %11)
  br i1 %12, label %13, label %70

13:                                               ; preds = %2
  call void @llvm.lifetime.start.p0(i64 4, ptr %5) #3
  store i32 0, ptr %5, align 4, !tbaa !10
  call void @llvm.lifetime.start.p0(i64 8, ptr %6) #3
  %14 = getelementptr inbounds nuw %"class.sat::local_search", ptr %10, i32 0, i32 3
  store ptr %14, ptr %6, align 8, !tbaa !51
  call void @llvm.lifetime.start.p0(i64 8, ptr %7) #3
  %15 = load ptr, ptr %6, align 8, !tbaa !51
  %16 = call noundef ptr @_ZNK6vectorIN3sat12local_search8var_infoELb1EjE5beginEv(ptr noundef nonnull align 8 dereferenceable(8) %15)
  store ptr %16, ptr %7, align 8, !tbaa !53
  call void @llvm.lifetime.start.p0(i64 8, ptr %8) #3
  %17 = load ptr, ptr %6, align 8, !tbaa !51
  %18 = call noundef ptr @_ZNK6vectorIN3sat12local_search8var_infoELb1EjE3endEv(ptr noundef nonnull align 8 dereferenceable(8) %17)
  store ptr %18, ptr %8, align 8, !tbaa !53
  br label %19

19:                                               ; preds = %66, %13
  %20 = load ptr, ptr %7, align 8, !tbaa !53
  %21 = load ptr, ptr %8, align 8, !tbaa !53
  %22 = icmp ne ptr %20, %21
  br i1 %22, label %24, label %23

23:                                               ; preds = %19
  call void @llvm.lifetime.end.p0(i64 8, ptr %8) #3
  call void @llvm.lifetime.end.p0(i64 8, ptr %7) #3
  call void @llvm.lifetime.end.p0(i64 8, ptr %6) #3
  br label %69

24:                                               ; preds = %19
  call void @llvm.lifetime.start.p0(i64 8, ptr %9) #3
  %25 = load ptr, ptr %7, align 8, !tbaa !53
  store ptr %25, ptr %9, align 8, !tbaa !53
  %26 = call noundef i32 @_Z19get_verbosity_levelv()
  %27 = icmp uge i32 %26, 0
  br i1 %27, label %28, label %63

28:                                               ; preds = %24
  %29 = call noundef zeroext i1 @_Z11is_threadedv()
  br i1 %29, label %30, label %46

30:                                               ; preds = %28
  call void @_Z12verbose_lockv()
  %31 = call noundef nonnull align 8 dereferenceable(8) ptr @_Z14verbose_streamv()
  %32 = call noundef nonnull align 8 dereferenceable(8) ptr @_ZStlsISt11char_traitsIcEERSt13basic_ostreamIcT_ES5_PKc(ptr noundef nonnull align 8 dereferenceable(8) %31, ptr noundef @.str.41)
  %33 = load i32, ptr %5, align 4, !tbaa !10
  %34 = call noundef nonnull align 8 dereferenceable(8) ptr @_ZNSolsEj(ptr noundef nonnull align 8 dereferenceable(8) %32, i32 noundef %33)
  %35 = call noundef nonnull align 8 dereferenceable(8) ptr @_ZStlsISt11char_traitsIcEERSt13basic_ostreamIcT_ES5_PKc(ptr noundef nonnull align 8 dereferenceable(8) %34, ptr noundef @.str.7)
  %36 = load ptr, ptr %9, align 8, !tbaa !53
  %37 = getelementptr inbounds nuw %"struct.sat::local_search::var_info", ptr %36, i32 0, i32 12
  %38 = load i32, ptr %37, align 8, !tbaa !79
  %39 = call noundef nonnull align 8 dereferenceable(8) ptr @_ZNSolsEj(ptr noundef nonnull align 8 dereferenceable(8) %35, i32 noundef %38)
  %40 = call noundef nonnull align 8 dereferenceable(8) ptr @_ZStlsISt11char_traitsIcEERSt13basic_ostreamIcT_ES5_PKc(ptr noundef nonnull align 8 dereferenceable(8) %39, ptr noundef @.str.7)
  %41 = load ptr, ptr %9, align 8, !tbaa !53
  %42 = getelementptr inbounds nuw %"struct.sat::local_search::var_info", ptr %41, i32 0, i32 13
  %43 = call noundef double @_ZNK3emacvdEv(ptr noundef nonnull align 8 dereferenceable(32) %42)
  %44 = call noundef nonnull align 8 dereferenceable(8) ptr @_ZNSolsEd(ptr noundef nonnull align 8 dereferenceable(8) %40, double noundef %43)
  %45 = call noundef nonnull align 8 dereferenceable(8) ptr @_ZStlsISt11char_traitsIcEERSt13basic_ostreamIcT_ES5_PKc(ptr noundef nonnull align 8 dereferenceable(8) %44, ptr noundef @.str.8)
  call void @_Z14verbose_unlockv()
  br label %62

46:                                               ; preds = %28
  %47 = call noundef nonnull align 8 dereferenceable(8) ptr @_Z14verbose_streamv()
  %48 = call noundef nonnull align 8 dereferenceable(8) ptr @_ZStlsISt11char_traitsIcEERSt13basic_ostreamIcT_ES5_PKc(ptr noundef nonnull align 8 dereferenceable(8) %47, ptr noundef @.str.41)
  %49 = load i32, ptr %5, align 4, !tbaa !10
  %50 = call noundef nonnull align 8 dereferenceable(8) ptr @_ZNSolsEj(ptr noundef nonnull align 8 dereferenceable(8) %48, i32 noundef %49)
  %51 = call noundef nonnull align 8 dereferenceable(8) ptr @_ZStlsISt11char_traitsIcEERSt13basic_ostreamIcT_ES5_PKc(ptr noundef nonnull align 8 dereferenceable(8) %50, ptr noundef @.str.7)
  %52 = load ptr, ptr %9, align 8, !tbaa !53
  %53 = getelementptr inbounds nuw %"struct.sat::local_search::var_info", ptr %52, i32 0, i32 12
  %54 = load i32, ptr %53, align 8, !tbaa !79
  %55 = call noundef nonnull align 8 dereferenceable(8) ptr @_ZNSolsEj(ptr noundef nonnull align 8 dereferenceable(8) %51, i32 noundef %54)
  %56 = call noundef nonnull align 8 dereferenceable(8) ptr @_ZStlsISt11char_traitsIcEERSt13basic_ostreamIcT_ES5_PKc(ptr noundef nonnull align 8 dereferenceable(8) %55, ptr noundef @.str.7)
  %57 = load ptr, ptr %9, align 8, !tbaa !53
  %58 = getelementptr inbounds nuw %"struct.sat::local_search::var_info", ptr %57, i32 0, i32 13
  %59 = call noundef double @_ZNK3emacvdEv(ptr noundef nonnull align 8 dereferenceable(32) %58)
  %60 = call noundef nonnull align 8 dereferenceable(8) ptr @_ZNSolsEd(ptr noundef nonnull align 8 dereferenceable(8) %56, double noundef %59)
  %61 = call noundef nonnull align 8 dereferenceable(8) ptr @_ZStlsISt11char_traitsIcEERSt13basic_ostreamIcT_ES5_PKc(ptr noundef nonnull align 8 dereferenceable(8) %60, ptr noundef @.str.8)
  br label %62

62:                                               ; preds = %46, %30
  br label %63

63:                                               ; preds = %62, %24
  %64 = load i32, ptr %5, align 4, !tbaa !10
  %65 = add i32 %64, 1
  store i32 %65, ptr %5, align 4, !tbaa !10
  call void @llvm.lifetime.end.p0(i64 8, ptr %9) #3
  br label %66

66:                                               ; preds = %63
  %67 = load ptr, ptr %7, align 8, !tbaa !53
  %68 = getelementptr inbounds nuw %"struct.sat::local_search::var_info", ptr %67, i32 1
  store ptr %68, ptr %7, align 8, !tbaa !53
  br label %19

69:                                               ; preds = %23
  call void @llvm.lifetime.end.p0(i64 4, ptr %5) #3
  br label %70

70:                                               ; preds = %69, %2
  %71 = load ptr, ptr %4, align 8, !tbaa !272
  %72 = getelementptr inbounds nuw %"class.sat::local_search", ptr %10, i32 0, i32 1
  %73 = getelementptr inbounds nuw %"struct.sat::local_search::stats", ptr %72, i32 0, i32 0
  %74 = load i32, ptr %73, align 8, !tbaa !133
  call void @_ZN10statistics6updateEPKcj(ptr noundef nonnull align 8 dereferenceable(16) %71, ptr noundef @.str.42, i32 noundef %74)
  %75 = load ptr, ptr %4, align 8, !tbaa !272
  %76 = getelementptr inbounds nuw %"class.sat::local_search", ptr %10, i32 0, i32 1
  %77 = getelementptr inbounds nuw %"struct.sat::local_search::stats", ptr %76, i32 0, i32 1
  %78 = load i32, ptr %77, align 4, !tbaa !229
  call void @_ZN10statistics6updateEPKcj(ptr noundef nonnull align 8 dereferenceable(16) %75, ptr noundef @.str.43, i32 noundef %78)
  ret void
}