; Function Attrs: mustprogress uwtable
define hidden void @_ZNK3sat12local_search18collect_statisticsER10statistics(ptr noundef nonnull readonly align 8 captures(none) dereferenceable(232) %0, ptr noundef nonnull align 8 dereferenceable(16) %1) unnamed_addr #3 align 2 {
  %3 = getelementptr inbounds nuw i8, ptr %0, i64 29
  %4 = load i8, ptr %3, align 1, !tbaa !138, !range !7, !noundef !8
  %5 = trunc nuw i8 %4 to i1
  br i1 %5, label %6, label %.loopexit

6:                                                ; preds = %2
  %7 = getelementptr inbounds nuw i8, ptr %0, i64 40
  %8 = load ptr, ptr %7, align 8, !tbaa !49
  %9 = icmp eq ptr %8, null
  br i1 %9, label %.loopexit, label %_ZNK6vectorIN3sat12local_search8var_infoELb1EjE3endEv.exit

_ZNK6vectorIN3sat12local_search8var_infoELb1EjE3endEv.exit: ; preds = %6
  %10 = getelementptr inbounds i8, ptr %8, i64 -4
  %11 = load i32, ptr %10, align 4, !tbaa !13
  %12 = zext i32 %11 to i64
  %13 = getelementptr inbounds nuw %"struct.sat::local_search::var_info", ptr %8, i64 %12
  %.not16 = icmp eq i32 %11, 0
  br i1 %.not16, label %.loopexit, label %.lr.ph

.lr.ph:                                           ; preds = %_ZNK6vectorIN3sat12local_search8var_infoELb1EjE3endEv.exit, %44
  %indvars.iv = phi i64 [ %indvars.iv.next, %44 ], [ 0, %_ZNK6vectorIN3sat12local_search8var_infoELb1EjE3endEv.exit ]
  %.01517 = phi ptr [ %45, %44 ], [ %8, %_ZNK6vectorIN3sat12local_search8var_infoELb1EjE3endEv.exit ]
  %14 = tail call noundef i32 @_Z19get_verbosity_levelv()
  %15 = tail call noundef zeroext i1 @_Z11is_threadedv()
  br i1 %15, label %16, label %30

16:                                               ; preds = %.lr.ph
  tail call void @_Z12verbose_lockv()
  %17 = tail call noundef nonnull align 8 dereferenceable(8) ptr @_Z14verbose_streamv()
  %18 = tail call noundef nonnull align 8 dereferenceable(8) ptr @_ZSt16__ostream_insertIcSt11char_traitsIcEERSt13basic_ostreamIT_T0_ES6_PKS3_l(ptr noundef nonnull align 8 dereferenceable(8) %17, ptr noundef nonnull @.str.41, i64 noundef 7)
  %19 = tail call noundef nonnull align 8 dereferenceable(8) ptr @_ZNSo9_M_insertImEERSoT_(ptr noundef nonnull align 8 dereferenceable(8) %17, i64 noundef %indvars.iv)
  %20 = tail call noundef nonnull align 8 dereferenceable(8) ptr @_ZSt16__ostream_insertIcSt11char_traitsIcEERSt13basic_ostreamIT_T0_ES6_PKS3_l(ptr noundef nonnull align 8 dereferenceable(8) %19, ptr noundef nonnull @.str.7, i64 noundef 1)
  %21 = getelementptr inbounds nuw i8, ptr %.01517, i64 72
  %22 = load i32, ptr %21, align 8, !tbaa !103
  %23 = zext i32 %22 to i64
  %24 = tail call noundef nonnull align 8 dereferenceable(8) ptr @_ZNSo9_M_insertImEERSoT_(ptr noundef nonnull align 8 dereferenceable(8) %19, i64 noundef %23)
  %25 = tail call noundef nonnull align 8 dereferenceable(8) ptr @_ZSt16__ostream_insertIcSt11char_traitsIcEERSt13basic_ostreamIT_T0_ES6_PKS3_l(ptr noundef nonnull align 8 dereferenceable(8) %24, ptr noundef nonnull @.str.7, i64 noundef 1)
  %26 = getelementptr inbounds nuw i8, ptr %.01517, i64 96
  %27 = load double, ptr %26, align 8, !tbaa !104
  %28 = tail call noundef nonnull align 8 dereferenceable(8) ptr @_ZNSo9_M_insertIdEERSoT_(ptr noundef nonnull align 8 dereferenceable(8) %24, double noundef %27)
  %29 = tail call noundef nonnull align 8 dereferenceable(8) ptr @_ZSt16__ostream_insertIcSt11char_traitsIcEERSt13basic_ostreamIT_T0_ES6_PKS3_l(ptr noundef nonnull align 8 dereferenceable(8) %28, ptr noundef nonnull @.str.8, i64 noundef 1)
  tail call void @_Z14verbose_unlockv()
  br label %44

30:                                               ; preds = %.lr.ph
  %31 = tail call noundef nonnull align 8 dereferenceable(8) ptr @_Z14verbose_streamv()
  %32 = tail call noundef nonnull align 8 dereferenceable(8) ptr @_ZSt16__ostream_insertIcSt11char_traitsIcEERSt13basic_ostreamIT_T0_ES6_PKS3_l(ptr noundef nonnull align 8 dereferenceable(8) %31, ptr noundef nonnull @.str.41, i64 noundef 7)
  %33 = tail call noundef nonnull align 8 dereferenceable(8) ptr @_ZNSo9_M_insertImEERSoT_(ptr noundef nonnull align 8 dereferenceable(8) %31, i64 noundef %indvars.iv)
  %34 = tail call noundef nonnull align 8 dereferenceable(8) ptr @_ZSt16__ostream_insertIcSt11char_traitsIcEERSt13basic_ostreamIT_T0_ES6_PKS3_l(ptr noundef nonnull align 8 dereferenceable(8) %33, ptr noundef nonnull @.str.7, i64 noundef 1)
  %35 = getelementptr inbounds nuw i8, ptr %.01517, i64 72
  %36 = load i32, ptr %35, align 8, !tbaa !103
  %37 = zext i32 %36 to i64
  %38 = tail call noundef nonnull align 8 dereferenceable(8) ptr @_ZNSo9_M_insertImEERSoT_(ptr noundef nonnull align 8 dereferenceable(8) %33, i64 noundef %37)
  %39 = tail call noundef nonnull align 8 dereferenceable(8) ptr @_ZSt16__ostream_insertIcSt11char_traitsIcEERSt13basic_ostreamIT_T0_ES6_PKS3_l(ptr noundef nonnull align 8 dereferenceable(8) %38, ptr noundef nonnull @.str.7, i64 noundef 1)
  %40 = getelementptr inbounds nuw i8, ptr %.01517, i64 96
  %41 = load double, ptr %40, align 8, !tbaa !104
  %42 = tail call noundef nonnull align 8 dereferenceable(8) ptr @_ZNSo9_M_insertIdEERSoT_(ptr noundef nonnull align 8 dereferenceable(8) %38, double noundef %41)
  %43 = tail call noundef nonnull align 8 dereferenceable(8) ptr @_ZSt16__ostream_insertIcSt11char_traitsIcEERSt13basic_ostreamIT_T0_ES6_PKS3_l(ptr noundef nonnull align 8 dereferenceable(8) %42, ptr noundef nonnull @.str.8, i64 noundef 1)
  br label %44

44:                                               ; preds = %16, %30
  %indvars.iv.next = add nuw nsw i64 %indvars.iv, 1
  %45 = getelementptr inbounds nuw i8, ptr %.01517, i64 120
  %.not = icmp eq ptr %45, %13
  br i1 %.not, label %.loopexit, label %.lr.ph

.loopexit:                                        ; preds = %44, %6, %_ZNK6vectorIN3sat12local_search8var_infoELb1EjE3endEv.exit, %2
  %46 = getelementptr inbounds nuw i8, ptr %0, i64 8
  %47 = load i32, ptr %46, align 8, !tbaa !102
  tail call void @_ZN10statistics6updateEPKcj(ptr noundef nonnull align 8 dereferenceable(16) %1, ptr noundef nonnull @.str.42, i32 noundef %47)
  %48 = getelementptr inbounds nuw i8, ptr %0, i64 12
  %49 = load i32, ptr %48, align 4, !tbaa !286
  tail call void @_ZN10statistics6updateEPKcj(ptr noundef nonnull align 8 dereferenceable(16) %1, ptr noundef nonnull @.str.43, i32 noundef %49)
  ret void
}